(dp0
S'description'
p1
S'Count number of new emails on a gmail account'
p2
sS'script'
p3
S'GmailCounter/check_gmail.sh'
p4
sS'text_output'
p5
I01
sS'data_items'
p6
(lp7
S'gmail'
p8
asS'has_preferences'
p9
I01
sS'name'
p10
S'Gmail Counter'
p11
s.