(dp0
S'description'
p1
S'Play a song on your computer'
p2
sS'script'
p3
S'MusicPlayer/play_music.sh'
p4
sS'text_output'
p5
I00
sS'data_items'
p6
(lp7
S'music'
p8
asS'has_preferences'
p9
I01
sS'name'
p10
S'MP3 Player'
p11
s.
