(dp0
S'description'
p1
S'Get weather for your Gnome location'
p2
sS'script'
p3
S'Weather/get_weather.py'
p4
sS'text_output'
p5
I01
sS'data_items'
p6
(lp7
S'temperature'
p8
aS'humidity'
p9
aS'skyconditions'
p10
aS'windconditions'
p11
aS'high'
p12
aS'low'
p13
aS'todays_forecast'
p14
asS'has_preferences'
p15
I01
sS'name'
p16
S'Weather'
p17
s.