(dp0
S'description'
p1
S'Get date and events from the Hebrew calendar'
p2
sS'script'
p3
S'HebrewCalendar/check_hebcal.sh'
p4
sS'text_output'
p5
I01
sS'data_items'
p6
(lp7
S'hebdate'
p8
aS'hebcalevents'
p9
asS'has_preferences'
p10
I01
sS'name'
p11
S'Hebrew Calendar'
p12
s.
