(dp0
S'description'
p1
S'Read news from an rss feed'
p2
sS'script'
p3
S'News/read_news.py'
p4
sS'text_output'
p5
I01
sS'data_items'
p6
(lp7
S'rss'
p8
asS'has_preferences'
p9
I01
sS'name'
p10
S'News'
p11
s.