(dp0
S'description'
p1
S'Get weather for your Gnome location'
p2
sS'script'
p3
S'Weather/get_weather.sh'
p4
sS'text_output'
p5
I01
sS'data_items'
p6
(lp7
S'temperature'
p8
aS'humidity'
p9
aS'skyconditions'
p10
aS'weatherconditions'
p11
aS'windconditions'
p12
asS'has_preferences'
p13
I01
sS'name'
p14
S'Weather'
p15
s.